target datalayout = "e-m:e-p270:32:32-p271:32:32-p272:64:64-i64:64-i128:128-f80:128-n8:16:32:64-S128"
target triple = "x86_64-pc-linux-gnu"

%struct.dt_image_load_t = type { i32, i32 }

@.str = private unnamed_addr constant [21 x i8] c"load image %d mip %d\00", align 1

; Function Attrs: nounwind uwtable
define ptr @dt_image_load_job_create(i32 noundef %0, i32 noundef %1) #0 {
  %3 = alloca ptr, align 8
  %4 = alloca i32, align 4
  %5 = alloca i32, align 4
  %6 = alloca ptr, align 8
  %7 = alloca i32, align 4
  %8 = alloca ptr, align 8
  store i32 %0, ptr %4, align 4, !tbaa !6
  store i32 %1, ptr %5, align 4, !tbaa !6
  call void @llvm.lifetime.start.p0(i64 8, ptr %6) #6
  %9 = load i32, ptr %4, align 4, !tbaa !6
  %10 = load i32, ptr %5, align 4, !tbaa !6
  %11 = call ptr (ptr, ptr, ...) @dt_control_job_create(ptr noundef @dt_image_load_job_run, ptr noundef @.str, i32 noundef %9, i32 noundef %10)
  store ptr %11, ptr %6, align 8, !tbaa !10
  %12 = load ptr, ptr %6, align 8, !tbaa !10
  %13 = icmp ne ptr %12, null
  br i1 %13, label %15, label %14

14:                                               ; preds = %2
  store ptr null, ptr %3, align 8
  store i32 1, ptr %7, align 4
  br label %32

15:                                               ; preds = %2
  call void @llvm.lifetime.start.p0(i64 8, ptr %8) #6
  %16 = call noalias ptr @calloc(i64 noundef 1, i64 noundef 8) #7
  store ptr %16, ptr %8, align 8, !tbaa !13
  %17 = load ptr, ptr %8, align 8, !tbaa !13
  %18 = icmp ne ptr %17, null
  br i1 %18, label %21, label %19

19:                                               ; preds = %15
  %20 = load ptr, ptr %6, align 8, !tbaa !10
  call void @dt_control_job_dispose(ptr noundef %20)
  store ptr null, ptr %3, align 8
  store i32 1, ptr %7, align 4
  br label %31

21:                                               ; preds = %15
  %22 = load ptr, ptr %6, align 8, !tbaa !10
  %23 = load ptr, ptr %8, align 8, !tbaa !13
  call void @dt_control_job_set_params_with_size(ptr noundef %22, ptr noundef %23, i64 noundef 8, ptr noundef @free)
  %24 = load i32, ptr %4, align 4, !tbaa !6
  %25 = load ptr, ptr %8, align 8, !tbaa !13
  %26 = getelementptr inbounds nuw %struct.dt_image_load_t, ptr %25, i32 0, i32 0
  store i32 %24, ptr %26, align 4, !tbaa !15
  %27 = load i32, ptr %5, align 4, !tbaa !6
  %28 = load ptr, ptr %8, align 8, !tbaa !13
  %29 = getelementptr inbounds nuw %struct.dt_image_load_t, ptr %28, i32 0, i32 1
  store i32 %27, ptr %29, align 4, !tbaa !17
  %30 = load ptr, ptr %6, align 8, !tbaa !10
  store ptr %30, ptr %3, align 8
  store i32 1, ptr %7, align 4
  br label %31

31:                                               ; preds = %21, %19
  call void @llvm.lifetime.end.p0(i64 8, ptr %8) #6
  br label %32

32:                                               ; preds = %31, %14
  call void @llvm.lifetime.end.p0(i64 8, ptr %6) #6
  %33 = load ptr, ptr %3, align 8
  ret ptr %33
}