; Function Attrs: nounwind uwtable
define ptr @dt_image_load_job_create(i32 noundef %0, i32 noundef %1) local_unnamed_addr #0 {
  %3 = tail call ptr (ptr, ptr, ...) @dt_control_job_create(ptr noundef nonnull @dt_image_load_job_run, ptr noundef nonnull @.str, i32 noundef %0, i32 noundef %1) #8
  %.not = icmp eq ptr %3, null
  br i1 %.not, label %9, label %4

4:                                                ; preds = %2
  %5 = tail call noalias dereferenceable_or_null(8) ptr @calloc(i64 noundef 1, i64 noundef 8) #9
  %.not14 = icmp eq ptr %5, null
  br i1 %.not14, label %6, label %7

6:                                                ; preds = %4
  tail call void @dt_control_job_dispose(ptr noundef nonnull %3) #8
  br label %9

7:                                                ; preds = %4
  tail call void @dt_control_job_set_params_with_size(ptr noundef nonnull %3, ptr noundef nonnull %5, i64 noundef 8, ptr noundef nonnull @free) #8
  store i32 %0, ptr %5, align 4, !tbaa !6
  %8 = getelementptr inbounds nuw i8, ptr %5, i64 4
  store i32 %1, ptr %8, align 4, !tbaa !11
  br label %9

9:                                                ; preds = %6, %7, %2
  %.0 = phi ptr [ null, %2 ], [ %3, %7 ], [ null, %6 ]
  ret ptr %.0
}